target datalayout = "e-m:e-p270:32:32-p271:32:32-p272:64:64-i64:64-i128:128-f80:128-n8:16:32:64-S128"
target triple = "x86_64-pc-linux-gnu"

%struct.pkcs7_st = type { ptr, i64, i32, i32, ptr, %union.anon, %struct.PKCS7_CTX_st }
%union.anon = type { ptr }
%struct.PKCS7_CTX_st = type { ptr, ptr }
%struct.pkcs7_signed_st = type { ptr, ptr, ptr, ptr, ptr, ptr }
%struct.pkcs7_signedandenveloped_st = type { ptr, ptr, ptr, ptr, ptr, ptr, ptr }
%struct.pkcs7_enc_content_st = type { ptr, ptr, ptr, ptr, ptr }
%struct.pkcs7_enveloped_st = type { ptr, ptr, ptr }
%struct.pkcs7_encrypted_st = type { ptr, ptr }
%struct.pkcs7_digest_st = type { ptr, ptr, ptr, ptr }

@.str = private unnamed_addr constant [34 x i8] c"../openssl/crypto/pkcs7/pk7_lib.c\00", align 1
@__func__.PKCS7_set_type = private unnamed_addr constant [15 x i8] c"PKCS7_set_type\00", align 1

; Function Attrs: nounwind uwtable
define i32 @PKCS7_set_type(ptr noundef %0, i32 noundef %1) #0 {
  %3 = alloca i32, align 4
  %4 = alloca ptr, align 8
  %5 = alloca i32, align 4
  %6 = alloca ptr, align 8
  %7 = alloca i32, align 4
  store ptr %0, ptr %4, align 8, !tbaa !3
  store i32 %1, ptr %5, align 4, !tbaa !8
  call void @llvm.lifetime.start.p0(i64 8, ptr %6) #4
  %8 = load i32, ptr %5, align 4, !tbaa !8
  %9 = call ptr @OBJ_nid2obj(i32 noundef %8)
  store ptr %9, ptr %6, align 8, !tbaa !29
  %10 = load i32, ptr %5, align 4, !tbaa !8
  switch i32 %10, label %142 [
    i32 22, label %11
    i32 21, label %35
    i32 24, label %45
    i32 23, label %71
    i32 26, label %97
    i32 25, label %123
  ]

11:                                               ; preds = %2
  %12 = load ptr, ptr %6, align 8, !tbaa !29
  %13 = load ptr, ptr %4, align 8, !tbaa !3
  %14 = getelementptr inbounds nuw %struct.pkcs7_st, ptr %13, i32 0, i32 4
  store ptr %12, ptr %14, align 8, !tbaa !14
  %15 = call ptr @PKCS7_SIGNED_new()
  %16 = load ptr, ptr %4, align 8, !tbaa !3
  %17 = getelementptr inbounds nuw %struct.pkcs7_st, ptr %16, i32 0, i32 5
  store ptr %15, ptr %17, align 8, !tbaa !19
  %18 = icmp eq ptr %15, null
  br i1 %18, label %19, label %20

19:                                               ; preds = %11
  br label %144

20:                                               ; preds = %11
  %21 = load ptr, ptr %4, align 8, !tbaa !3
  %22 = getelementptr inbounds nuw %struct.pkcs7_st, ptr %21, i32 0, i32 5
  %23 = load ptr, ptr %22, align 8, !tbaa !19
  %24 = getelementptr inbounds nuw %struct.pkcs7_signed_st, ptr %23, i32 0, i32 0
  %25 = load ptr, ptr %24, align 8, !tbaa !30
  %26 = call i32 @ASN1_INTEGER_set(ptr noundef %25, i64 noundef 1)
  %27 = icmp ne i32 %26, 0
  br i1 %27, label %34, label %28

28:                                               ; preds = %20
  %29 = load ptr, ptr %4, align 8, !tbaa !3
  %30 = getelementptr inbounds nuw %struct.pkcs7_st, ptr %29, i32 0, i32 5
  %31 = load ptr, ptr %30, align 8, !tbaa !19
  call void @PKCS7_SIGNED_free(ptr noundef %31)
  %32 = load ptr, ptr %4, align 8, !tbaa !3
  %33 = getelementptr inbounds nuw %struct.pkcs7_st, ptr %32, i32 0, i32 5
  store ptr null, ptr %33, align 8, !tbaa !19
  br label %144

34:                                               ; preds = %20
  br label %143

35:                                               ; preds = %2
  %36 = load ptr, ptr %6, align 8, !tbaa !29
  %37 = load ptr, ptr %4, align 8, !tbaa !3
  %38 = getelementptr inbounds nuw %struct.pkcs7_st, ptr %37, i32 0, i32 4
  store ptr %36, ptr %38, align 8, !tbaa !14
  %39 = call ptr @ASN1_OCTET_STRING_new()
  %40 = load ptr, ptr %4, align 8, !tbaa !3
  %41 = getelementptr inbounds nuw %struct.pkcs7_st, ptr %40, i32 0, i32 5
  store ptr %39, ptr %41, align 8, !tbaa !19
  %42 = icmp eq ptr %39, null
  br i1 %42, label %43, label %44

43:                                               ; preds = %35
  br label %144

44:                                               ; preds = %35
  br label %143

45:                                               ; preds = %2
  %46 = load ptr, ptr %6, align 8, !tbaa !29
  %47 = load ptr, ptr %4, align 8, !tbaa !3
  %48 = getelementptr inbounds nuw %struct.pkcs7_st, ptr %47, i32 0, i32 4
  store ptr %46, ptr %48, align 8, !tbaa !14
  %49 = call ptr @PKCS7_SIGN_ENVELOPE_new()
  %50 = load ptr, ptr %4, align 8, !tbaa !3
  %51 = getelementptr inbounds nuw %struct.pkcs7_st, ptr %50, i32 0, i32 5
  store ptr %49, ptr %51, align 8, !tbaa !19
  %52 = icmp eq ptr %49, null
  br i1 %52, label %53, label %54

53:                                               ; preds = %45
  br label %144

54:                                               ; preds = %45
  %55 = load ptr, ptr %4, align 8, !tbaa !3
  %56 = getelementptr inbounds nuw %struct.pkcs7_st, ptr %55, i32 0, i32 5
  %57 = load ptr, ptr %56, align 8, !tbaa !19
  %58 = getelementptr inbounds nuw %struct.pkcs7_signedandenveloped_st, ptr %57, i32 0, i32 0
  %59 = load ptr, ptr %58, align 8, !tbaa !31
  %60 = call i32 @ASN1_INTEGER_set(ptr noundef %59, i64 noundef 1)
  %61 = icmp ne i32 %60, 0
  br i1 %61, label %63, label %62

62:                                               ; preds = %54
  br label %144

63:                                               ; preds = %54
  %64 = call ptr @OBJ_nid2obj(i32 noundef 21)
  %65 = load ptr, ptr %4, align 8, !tbaa !3
  %66 = getelementptr inbounds nuw %struct.pkcs7_st, ptr %65, i32 0, i32 5
  %67 = load ptr, ptr %66, align 8, !tbaa !19
  %68 = getelementptr inbounds nuw %struct.pkcs7_signedandenveloped_st, ptr %67, i32 0, i32 5
  %69 = load ptr, ptr %68, align 8, !tbaa !35
  %70 = getelementptr inbounds nuw %struct.pkcs7_enc_content_st, ptr %69, i32 0, i32 0
  store ptr %64, ptr %70, align 8, !tbaa !36
  br label %143

71:                                               ; preds = %2
  %72 = load ptr, ptr %6, align 8, !tbaa !29
  %73 = load ptr, ptr %4, align 8, !tbaa !3
  %74 = getelementptr inbounds nuw %struct.pkcs7_st, ptr %73, i32 0, i32 4
  store ptr %72, ptr %74, align 8, !tbaa !14
  %75 = call ptr @PKCS7_ENVELOPE_new()
  %76 = load ptr, ptr %4, align 8, !tbaa !3
  %77 = getelementptr inbounds nuw %struct.pkcs7_st, ptr %76, i32 0, i32 5
  store ptr %75, ptr %77, align 8, !tbaa !19
  %78 = icmp eq ptr %75, null
  br i1 %78, label %79, label %80

79:                                               ; preds = %71
  br label %144

80:                                               ; preds = %71
  %81 = load ptr, ptr %4, align 8, !tbaa !3
  %82 = getelementptr inbounds nuw %struct.pkcs7_st, ptr %81, i32 0, i32 5
  %83 = load ptr, ptr %82, align 8, !tbaa !19
  %84 = getelementptr inbounds nuw %struct.pkcs7_enveloped_st, ptr %83, i32 0, i32 0
  %85 = load ptr, ptr %84, align 8, !tbaa !41
  %86 = call i32 @ASN1_INTEGER_set(ptr noundef %85, i64 noundef 0)
  %87 = icmp ne i32 %86, 0
  br i1 %87, label %89, label %88

88:                                               ; preds = %80
  br label %144

89:                                               ; preds = %80
  %90 = call ptr @OBJ_nid2obj(i32 noundef 21)
  %91 = load ptr, ptr %4, align 8, !tbaa !3
  %92 = getelementptr inbounds nuw %struct.pkcs7_st, ptr %91, i32 0, i32 5
  %93 = load ptr, ptr %92, align 8, !tbaa !19
  %94 = getelementptr inbounds nuw %struct.pkcs7_enveloped_st, ptr %93, i32 0, i32 2
  %95 = load ptr, ptr %94, align 8, !tbaa !43
  %96 = getelementptr inbounds nuw %struct.pkcs7_enc_content_st, ptr %95, i32 0, i32 0
  store ptr %90, ptr %96, align 8, !tbaa !36
  br label %143

97:                                               ; preds = %2
  %98 = load ptr, ptr %6, align 8, !tbaa !29
  %99 = load ptr, ptr %4, align 8, !tbaa !3
  %100 = getelementptr inbounds nuw %struct.pkcs7_st, ptr %99, i32 0, i32 4
  store ptr %98, ptr %100, align 8, !tbaa !14
  %101 = call ptr @PKCS7_ENCRYPT_new()
  %102 = load ptr, ptr %4, align 8, !tbaa !3
  %103 = getelementptr inbounds nuw %struct.pkcs7_st, ptr %102, i32 0, i32 5
  store ptr %101, ptr %103, align 8, !tbaa !19
  %104 = icmp eq ptr %101, null
  br i1 %104, label %105, label %106

105:                                              ; preds = %97
  br label %144

106:                                              ; preds = %97
  %107 = load ptr, ptr %4, align 8, !tbaa !3
  %108 = getelementptr inbounds nuw %struct.pkcs7_st, ptr %107, i32 0, i32 5
  %109 = load ptr, ptr %108, align 8, !tbaa !19
  %110 = getelementptr inbounds nuw %struct.pkcs7_encrypted_st, ptr %109, i32 0, i32 0
  %111 = load ptr, ptr %110, align 8, !tbaa !44
  %112 = call i32 @ASN1_INTEGER_set(ptr noundef %111, i64 noundef 0)
  %113 = icmp ne i32 %112, 0
  br i1 %113, label %115, label %114

114:                                              ; preds = %106
  br label %144

115:                                              ; preds = %106
  %116 = call ptr @OBJ_nid2obj(i32 noundef 21)
  %117 = load ptr, ptr %4, align 8, !tbaa !3
  %118 = getelementptr inbounds nuw %struct.pkcs7_st, ptr %117, i32 0, i32 5
  %119 = load ptr, ptr %118, align 8, !tbaa !19
  %120 = getelementptr inbounds nuw %struct.pkcs7_encrypted_st, ptr %119, i32 0, i32 1
  %121 = load ptr, ptr %120, align 8, !tbaa !46
  %122 = getelementptr inbounds nuw %struct.pkcs7_enc_content_st, ptr %121, i32 0, i32 0
  store ptr %116, ptr %122, align 8, !tbaa !36
  br label %143

123:                                              ; preds = %2
  %124 = load ptr, ptr %6, align 8, !tbaa !29
  %125 = load ptr, ptr %4, align 8, !tbaa !3
  %126 = getelementptr inbounds nuw %struct.pkcs7_st, ptr %125, i32 0, i32 4
  store ptr %124, ptr %126, align 8, !tbaa !14
  %127 = call ptr @PKCS7_DIGEST_new()
  %128 = load ptr, ptr %4, align 8, !tbaa !3
  %129 = getelementptr inbounds nuw %struct.pkcs7_st, ptr %128, i32 0, i32 5
  store ptr %127, ptr %129, align 8, !tbaa !19
  %130 = icmp eq ptr %127, null
  br i1 %130, label %131, label %132

131:                                              ; preds = %123
  br label %144

132:                                              ; preds = %123
  %133 = load ptr, ptr %4, align 8, !tbaa !3
  %134 = getelementptr inbounds nuw %struct.pkcs7_st, ptr %133, i32 0, i32 5
  %135 = load ptr, ptr %134, align 8, !tbaa !19
  %136 = getelementptr inbounds nuw %struct.pkcs7_digest_st, ptr %135, i32 0, i32 0
  %137 = load ptr, ptr %136, align 8, !tbaa !47
  %138 = call i32 @ASN1_INTEGER_set(ptr noundef %137, i64 noundef 0)
  %139 = icmp ne i32 %138, 0
  br i1 %139, label %141, label %140

140:                                              ; preds = %132
  br label %144

141:                                              ; preds = %132
  br label %143

142:                                              ; preds = %2
  call void @ERR_new()
  call void @ERR_set_debug(ptr noundef @.str, i32 noundef 178, ptr noundef @__func__.PKCS7_set_type)
  call void (i32, i32, ptr, ...) @ERR_set_error(i32 noundef 33, i32 noundef 112, ptr noundef null)
  br label %144

143:                                              ; preds = %141, %115, %89, %63, %44, %34
  store i32 1, ptr %3, align 4
  store i32 1, ptr %7, align 4
  br label %145

144:                                              ; preds = %142, %140, %131, %114, %105, %88, %79, %62, %53, %43, %28, %19
  store i32 0, ptr %3, align 4
  store i32 1, ptr %7, align 4
  br label %145

145:                                              ; preds = %144, %143
  call void @llvm.lifetime.end.p0(i64 8, ptr %6) #4
  %146 = load i32, ptr %3, align 4
  ret i32 %146
}