; Function Attrs: nounwind uwtable
define range(i32 0, 2) i32 @PKCS7_set_type(ptr noundef captures(none) %0, i32 noundef %1) local_unnamed_addr #0 {
  %3 = tail call ptr @OBJ_nid2obj(i32 noundef %1) #7
  switch i32 %1, label %66 [
    i32 22, label %4
    i32 21, label %14
    i32 24, label %19
    i32 23, label %32
    i32 26, label %45
    i32 25, label %58
  ]

4:                                                ; preds = %2
  %5 = getelementptr inbounds nuw i8, ptr %0, i64 24
  store ptr %3, ptr %5, align 8, !tbaa !3
  %6 = tail call ptr @PKCS7_SIGNED_new() #7
  %7 = getelementptr inbounds nuw i8, ptr %0, i64 32
  store ptr %6, ptr %7, align 8, !tbaa !14
  %8 = icmp eq ptr %6, null
  br i1 %8, label %67, label %9

9:                                                ; preds = %4
  %10 = load ptr, ptr %6, align 8, !tbaa !24
  %11 = tail call i32 @ASN1_INTEGER_set(ptr noundef %10, i64 noundef 1) #7
  %.not38 = icmp eq i32 %11, 0
  br i1 %.not38, label %12, label %68

12:                                               ; preds = %9
  %13 = load ptr, ptr %7, align 8, !tbaa !14
  tail call void @PKCS7_SIGNED_free(ptr noundef %13) #7
  store ptr null, ptr %7, align 8, !tbaa !14
  br label %67

14:                                               ; preds = %2
  %15 = getelementptr inbounds nuw i8, ptr %0, i64 24
  store ptr %3, ptr %15, align 8, !tbaa !3
  %16 = tail call ptr @ASN1_OCTET_STRING_new() #7
  %17 = getelementptr inbounds nuw i8, ptr %0, i64 32
  store ptr %16, ptr %17, align 8, !tbaa !14
  %18 = icmp eq ptr %16, null
  br i1 %18, label %67, label %68

19:                                               ; preds = %2
  %20 = getelementptr inbounds nuw i8, ptr %0, i64 24
  store ptr %3, ptr %20, align 8, !tbaa !3
  %21 = tail call ptr @PKCS7_SIGN_ENVELOPE_new() #7
  %22 = getelementptr inbounds nuw i8, ptr %0, i64 32
  store ptr %21, ptr %22, align 8, !tbaa !14
  %23 = icmp eq ptr %21, null
  br i1 %23, label %67, label %24

24:                                               ; preds = %19
  %25 = load ptr, ptr %21, align 8, !tbaa !25
  %26 = tail call i32 @ASN1_INTEGER_set(ptr noundef %25, i64 noundef 1) #7
  %.not37 = icmp eq i32 %26, 0
  br i1 %.not37, label %67, label %27

27:                                               ; preds = %24
  %28 = tail call ptr @OBJ_nid2obj(i32 noundef 21) #7
  %29 = load ptr, ptr %22, align 8, !tbaa !14
  %30 = getelementptr inbounds nuw i8, ptr %29, i64 40
  %31 = load ptr, ptr %30, align 8, !tbaa !29
  store ptr %28, ptr %31, align 8, !tbaa !30
  br label %68

32:                                               ; preds = %2
  %33 = getelementptr inbounds nuw i8, ptr %0, i64 24
  store ptr %3, ptr %33, align 8, !tbaa !3
  %34 = tail call ptr @PKCS7_ENVELOPE_new() #7
  %35 = getelementptr inbounds nuw i8, ptr %0, i64 32
  store ptr %34, ptr %35, align 8, !tbaa !14
  %36 = icmp eq ptr %34, null
  br i1 %36, label %67, label %37

37:                                               ; preds = %32
  %38 = load ptr, ptr %34, align 8, !tbaa !35
  %39 = tail call i32 @ASN1_INTEGER_set(ptr noundef %38, i64 noundef 0) #7
  %.not36 = icmp eq i32 %39, 0
  br i1 %.not36, label %67, label %40

40:                                               ; preds = %37
  %41 = tail call ptr @OBJ_nid2obj(i32 noundef 21) #7
  %42 = load ptr, ptr %35, align 8, !tbaa !14
  %43 = getelementptr inbounds nuw i8, ptr %42, i64 16
  %44 = load ptr, ptr %43, align 8, !tbaa !37
  store ptr %41, ptr %44, align 8, !tbaa !30
  br label %68

45:                                               ; preds = %2
  %46 = getelementptr inbounds nuw i8, ptr %0, i64 24
  store ptr %3, ptr %46, align 8, !tbaa !3
  %47 = tail call ptr @PKCS7_ENCRYPT_new() #7
  %48 = getelementptr inbounds nuw i8, ptr %0, i64 32
  store ptr %47, ptr %48, align 8, !tbaa !14
  %49 = icmp eq ptr %47, null
  br i1 %49, label %67, label %50

50:                                               ; preds = %45
  %51 = load ptr, ptr %47, align 8, !tbaa !38
  %52 = tail call i32 @ASN1_INTEGER_set(ptr noundef %51, i64 noundef 0) #7
  %.not35 = icmp eq i32 %52, 0
  br i1 %.not35, label %67, label %53

53:                                               ; preds = %50
  %54 = tail call ptr @OBJ_nid2obj(i32 noundef 21) #7
  %55 = load ptr, ptr %48, align 8, !tbaa !14
  %56 = getelementptr inbounds nuw i8, ptr %55, i64 8
  %57 = load ptr, ptr %56, align 8, !tbaa !40
  store ptr %54, ptr %57, align 8, !tbaa !30
  br label %68

58:                                               ; preds = %2
  %59 = getelementptr inbounds nuw i8, ptr %0, i64 24
  store ptr %3, ptr %59, align 8, !tbaa !3
  %60 = tail call ptr @PKCS7_DIGEST_new() #7
  %61 = getelementptr inbounds nuw i8, ptr %0, i64 32
  store ptr %60, ptr %61, align 8, !tbaa !14
  %62 = icmp eq ptr %60, null
  br i1 %62, label %67, label %63

63:                                               ; preds = %58
  %64 = load ptr, ptr %60, align 8, !tbaa !41
  %65 = tail call i32 @ASN1_INTEGER_set(ptr noundef %64, i64 noundef 0) #7
  %.not = icmp eq i32 %65, 0
  br i1 %.not, label %67, label %68

66:                                               ; preds = %2
  tail call void @ERR_new() #7
  tail call void @ERR_set_debug(ptr noundef nonnull @.str, i32 noundef 178, ptr noundef nonnull @__func__.PKCS7_set_type) #7
  tail call void (i32, i32, ptr, ...) @ERR_set_error(i32 noundef 33, i32 noundef 112, ptr noundef null) #7
  br label %67

67:                                               ; preds = %63, %58, %50, %45, %37, %32, %24, %19, %14, %4, %66, %12
  br label %68

68:                                               ; preds = %27, %40, %53, %9, %14, %63, %67
  %.0 = phi i32 [ 0, %67 ], [ 1, %63 ], [ 1, %14 ], [ 1, %9 ], [ 1, %53 ], [ 1, %40 ], [ 1, %27 ]
  ret i32 %.0
}